; Function Attrs: mustprogress uwtable
define internal void @_ZN4LuauL8fnVisitVIRZNS_9copyErrorINS_12TypeMismatchEEEvRT_RNS_9TypeArenaERNS_10CloneStateEEUlOS3_E0_NS_17MissingPropertiesEEEvS4_PNSt11conditionalIXsr3stdE10is_const_vIT0_EEKvvE4typeE(ptr noundef nonnull readonly align 8 captures(none) dereferenceable(16) %0, ptr noundef captures(none) %1) #5 {
  %3 = load ptr, ptr %0, align 8, !tbaa !1032
  %4 = getelementptr inbounds nuw i8, ptr %0, i64 8
  %5 = load ptr, ptr %4, align 8, !tbaa !1034
  %6 = load ptr, ptr %1, align 8, !tbaa !182
  %7 = tail call noundef ptr @_ZN4Luau5cloneEPKNS_4TypeERNS_9TypeArenaERNS_10CloneStateE(ptr noundef %6, ptr noundef nonnull align 8 dereferenceable(88) %3, ptr noundef nonnull align 8 dereferenceable(120) %5)
  store ptr %7, ptr %1, align 8, !tbaa !156
  %8 = getelementptr inbounds nuw i8, ptr %1, i64 8
  %9 = load ptr, ptr %8, align 8, !tbaa !182
  %10 = tail call noundef ptr @_ZN4Luau5cloneEPKNS_4TypeERNS_9TypeArenaERNS_10CloneStateE(ptr noundef %9, ptr noundef nonnull align 8 dereferenceable(88) %3, ptr noundef nonnull align 8 dereferenceable(120) %5)
  store ptr %10, ptr %8, align 8, !tbaa !162
  ret void
}